(ioptparse
Values
p0
(dp1
S'selected_nodes'
p2
(lp3
sS'autoflatten'
p4
I01
sS'filetype'
p5
S'kicad_module'
p6
sS'ids'
p7
(lp8
S'text40466-6-7'
p9
asS'crop'
p10
I00
sS'debug'
p11
I00
sS'openkicad'
p12
I00
sS'openfactory'
p13
I00
sS'threshold'
p14
F128.0
sS'path'
p15
S'/home/dusjagr/Documents/8bit_Mixtape/8BitMixtape_reworked/KiCAD/8Bitmixtape_reworked.pretty'
p16
sS'dpi'
p17
F2000.0
sb.